target datalayout = "e-m:e-p270:32:32-p271:32:32-p272:64:64-i64:64-i128:128-f80:128-n8:16:32:64-S128"
target triple = "x86_64-unknown-linux-gnu"

%"struct.hermes::inst::InstMetaData" = type { i8, i8, i8, [6 x i8] }
%class.anon = type { ptr }
%"struct.hermes::inst::Inst" = type { %union.anon.13 }
%union.anon.13 = type <{ %"struct.hermes::inst::GetByIdLongInst", [10 x i8] }>
%"struct.hermes::inst::GetByIdLongInst" = type { i8, i8, i8, i8, i32 }
%"struct.hermes::inst::SwitchImmInst" = type <{ i8, i8, i32, i32, i32, i32 }>

; Function Attrs: mustprogress nounwind uwtable
define internal void @"_ZZN6hermes3hbc15BytecodeVisitor23visitInstructionsInBodyEPKhS3_bENK3$_0clEjiS3_"(ptr noundef nonnull align 8 dereferenceable(8) %this, i32 noundef %jmpIdx, i32 noundef %offset, ptr noundef %dest) #0 align 2 {
entry:
  %this.addr = alloca ptr, align 8
  %jmpIdx.addr = alloca i32, align 4
  %offset.addr = alloca i32, align 4
  %dest.addr = alloca ptr, align 8
  store ptr %this, ptr %this.addr, align 8
  store i32 %jmpIdx, ptr %jmpIdx.addr, align 4
  store i32 %offset, ptr %offset.addr, align 4
  store ptr %dest, ptr %dest.addr, align 8
  %this1 = load ptr, ptr %this.addr, align 8
  %0 = getelementptr inbounds %class.anon, ptr %this1, i32 0, i32 0
  %1 = load ptr, ptr %0, align 8
  %2 = load i32, ptr %jmpIdx.addr, align 4
  %3 = load i32, ptr %offset.addr, align 4
  %4 = load ptr, ptr %dest.addr, align 8
  %vtable = load ptr, ptr %1, align 8
  %vfn = getelementptr inbounds ptr, ptr %vtable, i64 4
  %5 = load ptr, ptr %vfn, align 8
  call void %5(ptr noundef nonnull align 8 dereferenceable(28) %1, i32 noundef %2, i32 noundef %3, ptr noundef %4)
  ret void
}

; Function Attrs: mustprogress nounwind uwtable
define linkonce_odr hidden noundef i64 @_ZN4llvh9alignAddrEPKvm(ptr noundef %Addr, i64 noundef %Alignment) #0 comdat {
entry:
  %Addr.addr = alloca ptr, align 8
  %Alignment.addr = alloca i64, align 8
  store ptr %Addr, ptr %Addr.addr, align 8
  store i64 %Alignment, ptr %Alignment.addr, align 8
  %0 = load ptr, ptr %Addr.addr, align 8
  %1 = ptrtoint ptr %0 to i64
  %2 = load i64, ptr %Alignment.addr, align 8
  %add = add i64 %1, %2
  %sub = sub i64 %add, 1
  %3 = load i64, ptr %Alignment.addr, align 8
  %sub1 = sub i64 %3, 1
  %not = xor i64 %sub1, -1
  %and = and i64 %sub, %not
  ret i64 %and
}

; Function Attrs: mustprogress nounwind uwtable
define internal void @"_ZN6hermes3hbc12_GLOBAL__N_122switchJumpTableForEachIZNS0_15BytecodeVisitor23visitInstructionsInBodyEPKhS5_bE3$_0EEvPKNS_4inst4InstET_"(ptr noundef %inst, ptr %f.coerce) #0 {
entry:
  %f = alloca %class.anon, align 8
  %inst.addr = alloca ptr, align 8
  %start = alloca i32, align 4
  %end = alloca i32, align 4
  %numberOfEntries = alloca i32, align 4
  %curJmpTableView = alloca ptr, align 8
  %curJmpTableViewOffset = alloca i32, align 4
  %jumpTargetOffset = alloca i32, align 4
  %coerce.dive = getelementptr inbounds %class.anon, ptr %f, i32 0, i32 0
  store ptr %f.coerce, ptr %coerce.dive, align 8
  store ptr %inst, ptr %inst.addr, align 8
  %0 = load ptr, ptr %inst.addr, align 8
  %1 = getelementptr inbounds %"struct.hermes::inst::Inst", ptr %0, i32 0, i32 0
  %op4 = getelementptr inbounds %"struct.hermes::inst::SwitchImmInst", ptr %1, i32 0, i32 4
  %2 = load i32, ptr %op4, align 1
  store i32 %2, ptr %start, align 4
  %3 = load ptr, ptr %inst.addr, align 8
  %4 = getelementptr inbounds %"struct.hermes::inst::Inst", ptr %3, i32 0, i32 0
  %op5 = getelementptr inbounds %"struct.hermes::inst::SwitchImmInst", ptr %4, i32 0, i32 5
  %5 = load i32, ptr %op5, align 1
  store i32 %5, ptr %end, align 4
  %6 = load i32, ptr %end, align 4
  %7 = load i32, ptr %start, align 4
  %sub = sub i32 %6, %7
  store i32 %sub, ptr %numberOfEntries, align 4
  %8 = load ptr, ptr %inst.addr, align 8
  %9 = load ptr, ptr %inst.addr, align 8
  %10 = getelementptr inbounds %"struct.hermes::inst::Inst", ptr %9, i32 0, i32 0
  %op2 = getelementptr inbounds %"struct.hermes::inst::SwitchImmInst", ptr %10, i32 0, i32 2
  %11 = load i32, ptr %op2, align 1
  %idx.ext = zext i32 %11 to i64
  %add.ptr = getelementptr inbounds i8, ptr %8, i64 %idx.ext
  %call = call noundef i64 @_ZN4llvh9alignAddrEPKvm(ptr noundef %add.ptr, i64 noundef 4)
  %12 = inttoptr i64 %call to ptr
  store ptr %12, ptr %curJmpTableView, align 8
  store i32 0, ptr %curJmpTableViewOffset, align 4
  br label %for.cond

for.cond:                                         ; preds = %for.inc, %entry
  %13 = load i32, ptr %curJmpTableViewOffset, align 4
  %14 = load i32, ptr %numberOfEntries, align 4
  %cmp = icmp ule i32 %13, %14
  br i1 %cmp, label %for.body, label %for.end

for.body:                                         ; preds = %for.cond
  %15 = load ptr, ptr %curJmpTableView, align 8
  %16 = load i32, ptr %curJmpTableViewOffset, align 4
  %idxprom = zext i32 %16 to i64
  %arrayidx = getelementptr inbounds i32, ptr %15, i64 %idxprom
  %17 = load i32, ptr %arrayidx, align 4
  store i32 %17, ptr %jumpTargetOffset, align 4
  %18 = load i32, ptr %curJmpTableViewOffset, align 4
  %19 = load i32, ptr %start, align 4
  %add = add i32 %18, %19
  %20 = load i32, ptr %jumpTargetOffset, align 4
  %21 = load ptr, ptr %inst.addr, align 8
  %22 = load i32, ptr %jumpTargetOffset, align 4
  %idx.ext1 = zext i32 %22 to i64
  %add.ptr2 = getelementptr inbounds i8, ptr %21, i64 %idx.ext1
  call void @"_ZZN6hermes3hbc15BytecodeVisitor23visitInstructionsInBodyEPKhS3_bENK3$_0clEjiS3_"(ptr noundef nonnull align 8 dereferenceable(8) %f, i32 noundef %add, i32 noundef %20, ptr noundef %add.ptr2)
  br label %for.inc

for.inc:                                          ; preds = %for.body
  %23 = load i32, ptr %curJmpTableViewOffset, align 4
  %inc = add i32 %23, 1
  store i32 %inc, ptr %curJmpTableViewOffset, align 4
  br label %for.cond, !llvm.loop !19

for.end:                                          ; preds = %for.cond
  ret void
}

; Function Attrs: mustprogress nounwind uwtable
define hidden void @_ZN6hermes3hbc15BytecodeVisitor23visitInstructionsInBodyEPKhS3_b(ptr noundef nonnull align 8 dereferenceable(28) %this, ptr noundef %bytecodeStart, ptr noundef %bytecodeEnd, i1 noundef zeroext %visitSwitchImmTargets) #0 align 2 {
entry:
  %this.addr = alloca ptr, align 8
  %bytecodeStart.addr = alloca ptr, align 8
  %bytecodeEnd.addr = alloca ptr, align 8
  %visitSwitchImmTargets.addr = alloca i8, align 1
  %ip = alloca ptr, align 8
  %md = alloca %"struct.hermes::inst::InstMetaData", align 1
  %tmp.coerce = alloca { i64, i8 }, align 8
  %op = alloca i8, align 1
  %instLength = alloca i8, align 1
  %agg.tmp = alloca %class.anon, align 8
  %operandBuf = alloca ptr, align 8
  %operandCount = alloca i32, align 4
  %operandIndex = alloca i32, align 4
  %operandType = alloca i8, align 1
  store ptr %this, ptr %this.addr, align 8
  store ptr %bytecodeStart, ptr %bytecodeStart.addr, align 8
  store ptr %bytecodeEnd, ptr %bytecodeEnd.addr, align 8
  %frombool = zext i1 %visitSwitchImmTargets to i8
  store i8 %frombool, ptr %visitSwitchImmTargets.addr, align 1
  %this1 = load ptr, ptr %this.addr, align 8
  %0 = load ptr, ptr %bytecodeStart.addr, align 8
  store ptr %0, ptr %ip, align 8
  br label %while.cond

while.cond:                                       ; preds = %for.end, %entry
  %1 = load ptr, ptr %ip, align 8
  %2 = load ptr, ptr %bytecodeEnd.addr, align 8
  %cmp = icmp ult ptr %1, %2
  br i1 %cmp, label %while.body, label %while.end

while.body:                                       ; preds = %while.cond
  %3 = load ptr, ptr %ip, align 8
  %4 = getelementptr inbounds %"struct.hermes::inst::Inst", ptr %3, i32 0, i32 0
  %5 = load i8, ptr %4, align 1
  %call = call { i64, i8 } @_ZN6hermes4inst15getInstMetaDataENS0_6OpCodeE(i8 noundef zeroext %5)
  store { i64, i8 } %call, ptr %tmp.coerce, align 8
  call void @llvm.memcpy.p0.p0.i64(ptr align 1 %md, ptr align 8 %tmp.coerce, i64 9, i1 false)
  %opCode = getelementptr inbounds %"struct.hermes::inst::InstMetaData", ptr %md, i32 0, i32 0
  %6 = load i8, ptr %opCode, align 1
  store i8 %6, ptr %op, align 1
  %size = getelementptr inbounds %"struct.hermes::inst::InstMetaData", ptr %md, i32 0, i32 1
  %7 = load i8, ptr %size, align 1
  store i8 %7, ptr %instLength, align 1
  %opCode2 = getelementptr inbounds %"struct.hermes::inst::InstMetaData", ptr %md, i32 0, i32 0
  %8 = load i8, ptr %opCode2, align 1
  %9 = load ptr, ptr %ip, align 8
  %10 = load i8, ptr %instLength, align 1
  %conv = zext i8 %10 to i32
  %vtable = load ptr, ptr %this1, align 8
  %vfn = getelementptr inbounds ptr, ptr %vtable, i64 2
  %11 = load ptr, ptr %vfn, align 8
  call void %11(ptr noundef nonnull align 8 dereferenceable(28) %this1, i8 noundef zeroext %8, ptr noundef %9, i32 noundef %conv)
  %12 = load i8, ptr %op, align 1
  %cmp3 = icmp eq i8 %12, -123
  br i1 %cmp3, label %land.lhs.true, label %if.end

land.lhs.true:                                    ; preds = %while.body
  %13 = load i8, ptr %visitSwitchImmTargets.addr, align 1
  %tobool = trunc i8 %13 to i1
  br i1 %tobool, label %if.then, label %if.end

if.then:                                          ; preds = %land.lhs.true
  %14 = load ptr, ptr %ip, align 8
  %15 = getelementptr inbounds %class.anon, ptr %agg.tmp, i32 0, i32 0
  store ptr %this1, ptr %15, align 8
  %coerce.dive = getelementptr inbounds %class.anon, ptr %agg.tmp, i32 0, i32 0
  %16 = load ptr, ptr %coerce.dive, align 8
  call void @"_ZN6hermes3hbc12_GLOBAL__N_122switchJumpTableForEachIZNS0_15BytecodeVisitor23visitInstructionsInBodyEPKhS5_bE3$_0EEvPKNS_4inst4InstET_"(ptr noundef %14, ptr %16)
  br label %if.end

if.end:                                           ; preds = %if.then, %land.lhs.true, %while.body
  %17 = load ptr, ptr %ip, align 8
  %add.ptr = getelementptr inbounds i8, ptr %17, i64 1
  store ptr %add.ptr, ptr %operandBuf, align 8
  %numOperands = getelementptr inbounds %"struct.hermes::inst::InstMetaData", ptr %md, i32 0, i32 2
  %18 = load i8, ptr %numOperands, align 1
  %conv4 = zext i8 %18 to i32
  store i32 %conv4, ptr %operandCount, align 4
  store i32 0, ptr %operandIndex, align 4
  br label %for.cond

for.cond:                                         ; preds = %for.inc, %if.end
  %19 = load i32, ptr %operandIndex, align 4
  %20 = load i32, ptr %operandCount, align 4
  %cmp5 = icmp slt i32 %19, %20
  br i1 %cmp5, label %for.body, label %for.end

for.body:                                         ; preds = %for.cond
  %operandType6 = getelementptr inbounds %"struct.hermes::inst::InstMetaData", ptr %md, i32 0, i32 3
  %21 = load i32, ptr %operandIndex, align 4
  %idxprom = sext i32 %21 to i64
  %arrayidx = getelementptr inbounds [6 x i8], ptr %operandType6, i64 0, i64 %idxprom
  %22 = load i8, ptr %arrayidx, align 1
  store i8 %22, ptr %operandType, align 1
  %23 = load ptr, ptr %ip, align 8
  %24 = load i8, ptr %operandType, align 1
  %25 = load ptr, ptr %operandBuf, align 8
  %26 = load i32, ptr %operandIndex, align 4
  %vtable7 = load ptr, ptr %this1, align 8
  %vfn8 = getelementptr inbounds ptr, ptr %vtable7, i64 5
  %27 = load ptr, ptr %vfn8, align 8
  call void %27(ptr noundef nonnull align 8 dereferenceable(28) %this1, ptr noundef %23, i8 noundef zeroext %24, ptr noundef %25, i32 noundef %26)
  %28 = load i8, ptr %operandType, align 1
  %call9 = call noundef zeroext i8 @_ZN6hermes4inst14getOperandSizeENS0_11OperandTypeE(i8 noundef zeroext %28)
  %conv10 = zext i8 %call9 to i32
  %29 = load ptr, ptr %operandBuf, align 8
  %idx.ext = sext i32 %conv10 to i64
  %add.ptr11 = getelementptr inbounds i8, ptr %29, i64 %idx.ext
  store ptr %add.ptr11, ptr %operandBuf, align 8
  br label %for.inc

for.inc:                                          ; preds = %for.body
  %30 = load i32, ptr %operandIndex, align 4
  %inc = add nsw i32 %30, 1
  store i32 %inc, ptr %operandIndex, align 4
  br label %for.cond, !llvm.loop !17

for.end:                                          ; preds = %for.cond
  %31 = load i8, ptr %op, align 1
  %32 = load ptr, ptr %ip, align 8
  %33 = load i8, ptr %instLength, align 1
  %conv12 = zext i8 %33 to i32
  %vtable13 = load ptr, ptr %this1, align 8
  %vfn14 = getelementptr inbounds ptr, ptr %vtable13, i64 3
  %34 = load ptr, ptr %vfn14, align 8
  call void %34(ptr noundef nonnull align 8 dereferenceable(28) %this1, i8 noundef zeroext %31, ptr noundef %32, i32 noundef %conv12)
  %35 = load i8, ptr %instLength, align 1
  %conv15 = zext i8 %35 to i32
  %36 = load ptr, ptr %ip, align 8
  %idx.ext16 = sext i32 %conv15 to i64
  %add.ptr17 = getelementptr inbounds i8, ptr %36, i64 %idx.ext16
  store ptr %add.ptr17, ptr %ip, align 8
  br label %while.cond, !llvm.loop !18

while.end:                                        ; preds = %while.cond
  ret void
}