; Function Attrs: mustprogress nounwind uwtable
define hidden void @_ZN6hermes3hbc15BytecodeVisitor23visitInstructionsInBodyEPKhS3_b(ptr noundef nonnull align 8 dereferenceable(28) %this, ptr noundef %bytecodeStart, ptr noundef readnone %bytecodeEnd, i1 noundef zeroext %visitSwitchImmTargets) local_unnamed_addr #1 align 2 {
entry:
  %md = alloca %"struct.hermes::inst::InstMetaData", align 8
  %cmp19 = icmp ult ptr %bytecodeStart, %bytecodeEnd
  br i1 %cmp19, label %while.body.lr.ph, label %while.end

while.body.lr.ph:                                 ; preds = %entry
  %tmp.coerce.sroa.2.0.md.sroa_idx = getelementptr inbounds i8, ptr %md, i64 8
  %operandType6 = getelementptr inbounds i8, ptr %md, i64 3
  br i1 %visitSwitchImmTargets, label %while.body, label %while.body.us

while.body.us:                                    ; preds = %while.body.lr.ph, %for.end.us
  %ip.020.us = phi ptr [ %add.ptr17.us, %for.end.us ], [ %bytecodeStart, %while.body.lr.ph ]
  %0 = load i8, ptr %ip.020.us, align 1
  %call.us = tail call { i64, i8 } @_ZN6hermes4inst15getInstMetaDataENS0_6OpCodeE(i8 noundef zeroext %0) #17
  %call.fca.0.extract.us = extractvalue { i64, i8 } %call.us, 0
  %call.fca.1.extract.us = extractvalue { i64, i8 } %call.us, 1
  store i64 %call.fca.0.extract.us, ptr %md, align 8
  store i8 %call.fca.1.extract.us, ptr %tmp.coerce.sroa.2.0.md.sroa_idx, align 8
  %1 = trunc i64 %call.fca.0.extract.us to i8
  %2 = lshr i64 %call.fca.0.extract.us, 8
  %3 = trunc i64 %2 to i32
  %conv.us = and i32 %3, 255
  %vtable.us = load ptr, ptr %this, align 8
  %vfn.us = getelementptr inbounds i8, ptr %vtable.us, i64 16
  %4 = load ptr, ptr %vfn.us, align 8
  tail call void %4(ptr noundef nonnull align 8 dereferenceable(28) %this, i8 noundef zeroext %1, ptr noundef nonnull %ip.020.us, i32 noundef %conv.us) #17
  %5 = and i64 %call.fca.0.extract.us, 16711680
  %cmp516.us.not = icmp eq i64 %5, 0
  br i1 %cmp516.us.not, label %for.end.us, label %for.body.us.preheader

for.body.us.preheader:                            ; preds = %while.body.us
  %6 = lshr i64 %call.fca.0.extract.us, 16
  %conv4.us = and i64 %6, 255
  %add.ptr.us = getelementptr inbounds i8, ptr %ip.020.us, i64 1
  br label %for.body.us

for.end.us:                                       ; preds = %for.body.us, %while.body.us
  %vtable13.us = load ptr, ptr %this, align 8
  %vfn14.us = getelementptr inbounds i8, ptr %vtable13.us, i64 24
  %7 = load ptr, ptr %vfn14.us, align 8
  tail call void %7(ptr noundef nonnull align 8 dereferenceable(28) %this, i8 noundef zeroext %1, ptr noundef nonnull %ip.020.us, i32 noundef %conv.us) #17
  %idx.ext16.us = and i64 %2, 255
  %add.ptr17.us = getelementptr inbounds i8, ptr %ip.020.us, i64 %idx.ext16.us
  %cmp.us = icmp ult ptr %add.ptr17.us, %bytecodeEnd
  br i1 %cmp.us, label %while.body.us, label %while.end, !llvm.loop !55

for.body.us:                                      ; preds = %for.body.us.preheader, %for.body.us
  %indvars.iv = phi i64 [ 0, %for.body.us.preheader ], [ %indvars.iv.next, %for.body.us ]
  %operandBuf.017.us = phi ptr [ %add.ptr.us, %for.body.us.preheader ], [ %add.ptr11.us, %for.body.us ]
  %arrayidx.us = getelementptr inbounds [6 x i8], ptr %operandType6, i64 0, i64 %indvars.iv
  %8 = load i8, ptr %arrayidx.us, align 1
  %vtable7.us = load ptr, ptr %this, align 8
  %vfn8.us = getelementptr inbounds i8, ptr %vtable7.us, i64 40
  %9 = load ptr, ptr %vfn8.us, align 8
  %10 = trunc i64 %indvars.iv to i32
  tail call void %9(ptr noundef nonnull align 8 dereferenceable(28) %this, ptr noundef nonnull %ip.020.us, i8 noundef zeroext %8, ptr noundef %operandBuf.017.us, i32 noundef %10) #17
  %call9.us = tail call noundef zeroext i8 @_ZN6hermes4inst14getOperandSizeENS0_11OperandTypeE(i8 noundef zeroext %8) #17
  %idx.ext.us = zext i8 %call9.us to i64
  %add.ptr11.us = getelementptr inbounds i8, ptr %operandBuf.017.us, i64 %idx.ext.us
  %indvars.iv.next = add nuw nsw i64 %indvars.iv, 1
  %exitcond.not = icmp eq i64 %indvars.iv.next, %conv4.us
  br i1 %exitcond.not, label %for.end.us, label %for.body.us, !llvm.loop !56

while.body:                                       ; preds = %while.body.lr.ph, %for.end
  %ip.020 = phi ptr [ %add.ptr17, %for.end ], [ %bytecodeStart, %while.body.lr.ph ]
  %11 = load i8, ptr %ip.020, align 1
  %call = tail call { i64, i8 } @_ZN6hermes4inst15getInstMetaDataENS0_6OpCodeE(i8 noundef zeroext %11) #17
  %call.fca.0.extract = extractvalue { i64, i8 } %call, 0
  %call.fca.1.extract = extractvalue { i64, i8 } %call, 1
  store i64 %call.fca.0.extract, ptr %md, align 8
  store i8 %call.fca.1.extract, ptr %tmp.coerce.sroa.2.0.md.sroa_idx, align 8
  %12 = trunc i64 %call.fca.0.extract to i8
  %13 = lshr i64 %call.fca.0.extract, 8
  %14 = trunc i64 %13 to i32
  %conv = and i32 %14, 255
  %vtable = load ptr, ptr %this, align 8
  %vfn = getelementptr inbounds i8, ptr %vtable, i64 16
  %15 = load ptr, ptr %vfn, align 8
  tail call void %15(ptr noundef nonnull align 8 dereferenceable(28) %this, i8 noundef zeroext %12, ptr noundef nonnull %ip.020, i32 noundef %conv) #17
  %cmp3 = icmp eq i8 %12, -123
  %16 = lshr i64 %call.fca.0.extract, 16
  br i1 %cmp3, label %if.then, label %if.end

if.then:                                          ; preds = %while.body
  %op4.i = getelementptr inbounds i8, ptr %ip.020, i64 10
  %17 = load i32, ptr %op4.i, align 1
  %op5.i = getelementptr inbounds i8, ptr %ip.020, i64 14
  %18 = load i32, ptr %op5.i, align 1
  %sub.i = sub i32 %18, %17
  %op2.i = getelementptr inbounds i8, ptr %ip.020, i64 2
  %19 = load i32, ptr %op2.i, align 1
  %idx.ext.i = zext i32 %19 to i64
  %add.ptr.i = getelementptr inbounds i8, ptr %ip.020, i64 %idx.ext.i
  %20 = ptrtoint ptr %add.ptr.i to i64
  %sub.i.i = add i64 %20, 3
  %and.i.i = and i64 %sub.i.i, -4
  %21 = inttoptr i64 %and.i.i to ptr
  br label %for.body.i

for.body.i:                                       ; preds = %for.body.i, %if.then
  %curJmpTableViewOffset.010.i = phi i32 [ 0, %if.then ], [ %inc.i, %for.body.i ]
  %idxprom.i = zext i32 %curJmpTableViewOffset.010.i to i64
  %arrayidx.i = getelementptr inbounds i32, ptr %21, i64 %idxprom.i
  %22 = load i32, ptr %arrayidx.i, align 4
  %add.i = add i32 %curJmpTableViewOffset.010.i, %17
  %idx.ext1.i = zext i32 %22 to i64
  %add.ptr2.i = getelementptr inbounds i8, ptr %ip.020, i64 %idx.ext1.i
  %vtable.i.i = load ptr, ptr %this, align 8
  %vfn.i.i = getelementptr inbounds i8, ptr %vtable.i.i, i64 32
  %23 = load ptr, ptr %vfn.i.i, align 8
  tail call void %23(ptr noundef nonnull align 8 dereferenceable(28) %this, i32 noundef %add.i, i32 noundef %22, ptr noundef nonnull %add.ptr2.i) #17
  %inc.i = add i32 %curJmpTableViewOffset.010.i, 1
  %cmp.not.i = icmp ugt i32 %inc.i, %sub.i
  br i1 %cmp.not.i, label %if.end, label %for.body.i, !llvm.loop !57

if.end:                                           ; preds = %for.body.i, %while.body
  %24 = and i64 %call.fca.0.extract, 16711680
  %cmp516.not = icmp eq i64 %24, 0
  br i1 %cmp516.not, label %for.end, label %for.body.preheader

for.body.preheader:                               ; preds = %if.end
  %conv4 = and i64 %16, 255
  %add.ptr = getelementptr inbounds i8, ptr %ip.020, i64 1
  br label %for.body

for.body:                                         ; preds = %for.body.preheader, %for.body
  %indvars.iv23 = phi i64 [ 0, %for.body.preheader ], [ %indvars.iv.next24, %for.body ]
  %operandBuf.017 = phi ptr [ %add.ptr, %for.body.preheader ], [ %add.ptr11, %for.body ]
  %arrayidx = getelementptr inbounds [6 x i8], ptr %operandType6, i64 0, i64 %indvars.iv23
  %25 = load i8, ptr %arrayidx, align 1
  %vtable7 = load ptr, ptr %this, align 8
  %vfn8 = getelementptr inbounds i8, ptr %vtable7, i64 40
  %26 = load ptr, ptr %vfn8, align 8
  %27 = trunc i64 %indvars.iv23 to i32
  tail call void %26(ptr noundef nonnull align 8 dereferenceable(28) %this, ptr noundef nonnull %ip.020, i8 noundef zeroext %25, ptr noundef %operandBuf.017, i32 noundef %27) #17
  %call9 = tail call noundef zeroext i8 @_ZN6hermes4inst14getOperandSizeENS0_11OperandTypeE(i8 noundef zeroext %25) #17
  %idx.ext = zext i8 %call9 to i64
  %add.ptr11 = getelementptr inbounds i8, ptr %operandBuf.017, i64 %idx.ext
  %indvars.iv.next24 = add nuw nsw i64 %indvars.iv23, 1
  %exitcond27.not = icmp eq i64 %indvars.iv.next24, %conv4
  br i1 %exitcond27.not, label %for.end, label %for.body, !llvm.loop !56

for.end:                                          ; preds = %for.body, %if.end
  %vtable13 = load ptr, ptr %this, align 8
  %vfn14 = getelementptr inbounds i8, ptr %vtable13, i64 24
  %28 = load ptr, ptr %vfn14, align 8
  tail call void %28(ptr noundef nonnull align 8 dereferenceable(28) %this, i8 noundef zeroext %12, ptr noundef nonnull %ip.020, i32 noundef %conv) #17
  %idx.ext16 = and i64 %13, 255
  %add.ptr17 = getelementptr inbounds i8, ptr %ip.020, i64 %idx.ext16
  %cmp = icmp ult ptr %add.ptr17, %bytecodeEnd
  br i1 %cmp, label %while.body, label %while.end, !llvm.loop !55

while.end:                                        ; preds = %for.end.us, %for.end, %entry
  ret void
}